; Function Attrs: mustprogress nofree norecurse nosync nounwind willreturn memory(read, inaccessiblemem: none) uwtable
define dso_local noundef i32 @_ZNK11btMultiBody9getParentEi(ptr nocapture noundef nonnull readonly align 8 dereferenceable(640) %this, i32 noundef %link_num) local_unnamed_addr #6 align 2 {
entry:
  %m_data.i = getelementptr inbounds i8, ptr %this, i64 192
  %0 = load ptr, ptr %m_data.i, align 8
  %idxprom.i = sext i32 %link_num to i64
  %m_parent = getelementptr inbounds %struct.btMultibodyLink, ptr %0, i64 %idxprom.i, i32 2
  %1 = load i32, ptr %m_parent, align 4
  ret i32 %1
}